---
triple:          'arm64-apple-darwin'
binary-path:     main.x
relocations:
  - { offsetInCU: 0x2F32, offset: 0x2F32, size: 0x8, addend: 0x0, symName: __ZNSt3__124__put_character_sequenceB8ue170006IcNS_11char_traitsIcEEEERNS_13basic_ostreamIT_T0_EES7_PKS4_m, symObjAddr: 0x1640, symBinAddr: 0x10000207C, symSize: 0x1EC }
  - { offsetInCU: 0x4886, offset: 0x4886, size: 0x8, addend: 0x0, symName: __ZNSt3__1eqB8ue170006IcNS_11char_traitsIcEENS_9allocatorIcEEEEbRKNS_12basic_stringIT_T0_T1_EEPKS6_, symObjAddr: 0x10D0, symBinAddr: 0x100001B0C, symSize: 0xAC }
  - { offsetInCU: 0x48ED, offset: 0x48ED, size: 0x8, addend: 0x0, symName: __ZNSt3__1lsB8ue170006INS_11char_traitsIcEEEERNS_13basic_ostreamIcT_EES6_PKc, symObjAddr: 0x11B0, symBinAddr: 0x100001BEC, symSize: 0x48 }
  - { offsetInCU: 0x4933, offset: 0x4933, size: 0x8, addend: 0x0, symName: __ZNSt3__14endlB8ue170006IcNS_11char_traitsIcEEEERNS_13basic_ostreamIT_T0_EES7_, symObjAddr: 0x1224, symBinAddr: 0x100001C60, symSize: 0x58 }
  - { offsetInCU: 0x4973, offset: 0x4973, size: 0x8, addend: 0x0, symName: __ZNSt3__118__constexpr_strlenB8ue170006EPKc, symObjAddr: 0x1400, symBinAddr: 0x100001E3C, symSize: 0x24 }
  - { offsetInCU: 0x499F, offset: 0x499F, size: 0x8, addend: 0x0, symName: __ZNSt3__116__pad_and_outputB8ue170006IcNS_11char_traitsIcEEEENS_19ostreambuf_iteratorIT_T0_EES6_PKS4_S8_S8_RNS_8ios_baseES4_, symObjAddr: 0x1848, symBinAddr: 0x100002284, symSize: 0x240 }
  - { offsetInCU: 0x4A6E, offset: 0x4A6E, size: 0x8, addend: 0x0, symName: __ZNSt3__112__to_addressB8ue170006IKcEEPT_S3_, symObjAddr: 0x1CB8, symBinAddr: 0x1000026F4, symSize: 0x14 }
  - { offsetInCU: 0x4AD6, offset: 0x4AD6, size: 0x8, addend: 0x0, symName: __ZNSt3__19use_facetB8ue170006INS_5ctypeIcEEEERKT_RKNS_6localeE, symObjAddr: 0x1EC8, symBinAddr: 0x100002904, symSize: 0x2C }
  - { offsetInCU: 0x75FC, offset: 0x75FC, size: 0x8, addend: 0x0, symName: _main, symObjAddr: 0x0, symBinAddr: 0x100000A3C, symSize: 0x10D0 }
  - { offsetInCU: 0x7657, offset: 0x7657, size: 0x8, addend: 0x0, symName: __ZNSt3__112basic_stringIcNS_11char_traitsIcEENS_9allocatorIcEEEC1B8ue170006ILi0EEEPKc, symObjAddr: 0x117C, symBinAddr: 0x100001BB8, symSize: 0x34 }
  - { offsetInCU: 0x7694, offset: 0x7694, size: 0x8, addend: 0x0, symName: __ZNSt3__113basic_ostreamIcNS_11char_traitsIcEEElsB8ue170006EPFRS3_S4_E, symObjAddr: 0x11F8, symBinAddr: 0x100001C34, symSize: 0x2C }
  - { offsetInCU: 0x7928, offset: 0x7928, size: 0x8, addend: 0x0, symName: __ZN14SavingsAccountD1Ev, symObjAddr: 0x127C, symBinAddr: 0x100001CB8, symSize: 0x2C }
  - { offsetInCU: 0x7A09, offset: 0x7A09, size: 0x8, addend: 0x0, symName: __ZN15CheckingAccountD1Ev, symObjAddr: 0x12A8, symBinAddr: 0x100001CE4, symSize: 0x2C }
  - { offsetInCU: 0x7A33, offset: 0x7A33, size: 0x8, addend: 0x0, symName: __ZN14SavingsAccountD2Ev, symObjAddr: 0x12D4, symBinAddr: 0x100001D10, symSize: 0x2C }
  - { offsetInCU: 0x7A5D, offset: 0x7A5D, size: 0x8, addend: 0x0, symName: __ZN7AccountD2Ev, symObjAddr: 0x1300, symBinAddr: 0x100001D3C, symSize: 0x40 }
  - { offsetInCU: 0x7A87, offset: 0x7A87, size: 0x8, addend: 0x0, symName: __ZN15CheckingAccountD2Ev, symObjAddr: 0x1340, symBinAddr: 0x100001D7C, symSize: 0x2C }
  - { offsetInCU: 0x7AB1, offset: 0x7AB1, size: 0x8, addend: 0x0, symName: __ZNSt3__111char_traitsIcE6lengthB8ue170006EPKc, symObjAddr: 0x136C, symBinAddr: 0x100001DA8, symSize: 0x34 }
  - { offsetInCU: 0x7AD3, offset: 0x7AD3, size: 0x8, addend: 0x0, symName: __ZNKSt3__112basic_stringIcNS_11char_traitsIcEENS_9allocatorIcEEE4sizeB8ue170006Ev, symObjAddr: 0x13A0, symBinAddr: 0x100001DDC, symSize: 0x54 }
  - { offsetInCU: 0x7AF7, offset: 0x7AF7, size: 0x8, addend: 0x0, symName: __ZNKSt3__112basic_stringIcNS_11char_traitsIcEENS_9allocatorIcEEE9__is_longB8ue170006Ev, symObjAddr: 0x1424, symBinAddr: 0x100001E60, symSize: 0x38 }
  - { offsetInCU: 0x7B1B, offset: 0x7B1B, size: 0x8, addend: 0x0, symName: __ZNKSt3__112basic_stringIcNS_11char_traitsIcEENS_9allocatorIcEEE15__get_long_sizeB8ue170006Ev, symObjAddr: 0x145C, symBinAddr: 0x100001E98, symSize: 0x28 }
  - { offsetInCU: 0x7B3F, offset: 0x7B3F, size: 0x8, addend: 0x0, symName: __ZNKSt3__112basic_stringIcNS_11char_traitsIcEENS_9allocatorIcEEE16__get_short_sizeB8ue170006Ev, symObjAddr: 0x1484, symBinAddr: 0x100001EC0, symSize: 0x34 }
  - { offsetInCU: 0x7B63, offset: 0x7B63, size: 0x8, addend: 0x0, symName: __ZNKSt3__117__compressed_pairINS_12basic_stringIcNS_11char_traitsIcEENS_9allocatorIcEEE5__repES5_E5firstB8ue170006Ev, symObjAddr: 0x14B8, symBinAddr: 0x100001EF4, symSize: 0x24 }
  - { offsetInCU: 0x7B87, offset: 0x7B87, size: 0x8, addend: 0x0, symName: __ZNKSt3__122__compressed_pair_elemINS_12basic_stringIcNS_11char_traitsIcEENS_9allocatorIcEEE5__repELi0ELb0EE5__getB8ue170006Ev, symObjAddr: 0x14DC, symBinAddr: 0x100001F18, symSize: 0x14 }
  - { offsetInCU: 0x7BAB, offset: 0x7BAB, size: 0x8, addend: 0x0, symName: __ZNSt3__112basic_stringIcNS_11char_traitsIcEENS_9allocatorIcEEEC2B8ue170006ILi0EEEPKc, symObjAddr: 0x14F0, symBinAddr: 0x100001F2C, symSize: 0x58 }
  - { offsetInCU: 0x7BED, offset: 0x7BED, size: 0x8, addend: 0x0, symName: __ZNSt3__117__compressed_pairINS_12basic_stringIcNS_11char_traitsIcEENS_9allocatorIcEEE5__repES5_EC1B8ue170006INS_18__default_init_tagESA_EEOT_OT0_, symObjAddr: 0x1548, symBinAddr: 0x100001F84, symSize: 0x3C }
  - { offsetInCU: 0x7C43, offset: 0x7C43, size: 0x8, addend: 0x0, symName: __ZNSt3__117__compressed_pairINS_12basic_stringIcNS_11char_traitsIcEENS_9allocatorIcEEE5__repES5_EC2B8ue170006INS_18__default_init_tagESA_EEOT_OT0_, symObjAddr: 0x1584, symBinAddr: 0x100001FC0, symSize: 0x3C }
  - { offsetInCU: 0x7C99, offset: 0x7C99, size: 0x8, addend: 0x0, symName: __ZNSt3__122__compressed_pair_elemINS_12basic_stringIcNS_11char_traitsIcEENS_9allocatorIcEEE5__repELi0ELb0EEC2B8ue170006ENS_18__default_init_tagE, symObjAddr: 0x15C0, symBinAddr: 0x100001FFC, symSize: 0x14 }
  - { offsetInCU: 0x7CCB, offset: 0x7CCB, size: 0x8, addend: 0x0, symName: __ZNSt3__122__compressed_pair_elemINS_9allocatorIcEELi1ELb1EEC2B8ue170006ENS_18__default_init_tagE, symObjAddr: 0x15D4, symBinAddr: 0x100002010, symSize: 0x2C }
  - { offsetInCU: 0x7CFD, offset: 0x7CFD, size: 0x8, addend: 0x0, symName: __ZNSt3__19allocatorIcEC2B8ue170006Ev, symObjAddr: 0x1600, symBinAddr: 0x10000203C, symSize: 0x2C }
  - { offsetInCU: 0x7D25, offset: 0x7D25, size: 0x8, addend: 0x0, symName: __ZNSt3__116__non_trivial_ifILb1ENS_9allocatorIcEEEC2B8ue170006Ev, symObjAddr: 0x162C, symBinAddr: 0x100002068, symSize: 0x14 }
  - { offsetInCU: 0x7D6B, offset: 0x7D6B, size: 0x8, addend: 0x0, symName: __ZNKSt3__113basic_ostreamIcNS_11char_traitsIcEEE6sentrycvbB8ue170006Ev, symObjAddr: 0x182C, symBinAddr: 0x100002268, symSize: 0x1C }
  - { offsetInCU: 0x7D8F, offset: 0x7D8F, size: 0x8, addend: 0x0, symName: __ZNSt3__119ostreambuf_iteratorIcNS_11char_traitsIcEEEC1B8ue170006ERNS_13basic_ostreamIcS2_EE, symObjAddr: 0x1A88, symBinAddr: 0x1000024C4, symSize: 0x34 }
  - { offsetInCU: 0x7DC5, offset: 0x7DC5, size: 0x8, addend: 0x0, symName: __ZNKSt3__18ios_base5flagsB8ue170006Ev, symObjAddr: 0x1ABC, symBinAddr: 0x1000024F8, symSize: 0x18 }
  - { offsetInCU: 0x7DEB, offset: 0x7DEB, size: 0x8, addend: 0x0, symName: __ZNKSt3__19basic_iosIcNS_11char_traitsIcEEE4fillB8ue170006Ev, symObjAddr: 0x1AD4, symBinAddr: 0x100002510, symSize: 0x64 }
  - { offsetInCU: 0x7E11, offset: 0x7E11, size: 0x8, addend: 0x0, symName: __ZNKSt3__119ostreambuf_iteratorIcNS_11char_traitsIcEEE6failedB8ue170006Ev, symObjAddr: 0x1B38, symBinAddr: 0x100002574, symSize: 0x24 }
  - { offsetInCU: 0x7E35, offset: 0x7E35, size: 0x8, addend: 0x0, symName: __ZNSt3__19basic_iosIcNS_11char_traitsIcEEE8setstateB8ue170006Ej, symObjAddr: 0x1B5C, symBinAddr: 0x100002598, symSize: 0x2C }
  - { offsetInCU: 0x7E68, offset: 0x7E68, size: 0x8, addend: 0x0, symName: __ZNKSt3__18ios_base5widthB8ue170006Ev, symObjAddr: 0x1B88, symBinAddr: 0x1000025C4, symSize: 0x18 }
  - { offsetInCU: 0x7E8E, offset: 0x7E8E, size: 0x8, addend: 0x0, symName: __ZNSt3__115basic_streambufIcNS_11char_traitsIcEEE5sputnB8ue170006EPKcl, symObjAddr: 0x1BA0, symBinAddr: 0x1000025DC, symSize: 0x3C }
  - { offsetInCU: 0x7ECE, offset: 0x7ECE, size: 0x8, addend: 0x0, symName: __ZNSt3__112basic_stringIcNS_11char_traitsIcEENS_9allocatorIcEEEC1B8ue170006Emc, symObjAddr: 0x1BDC, symBinAddr: 0x100002618, symSize: 0x3C }
  - { offsetInCU: 0x7F14, offset: 0x7F14, size: 0x8, addend: 0x0, symName: __ZNKSt3__112basic_stringIcNS_11char_traitsIcEENS_9allocatorIcEEE4dataB8ue170006Ev, symObjAddr: 0x1C18, symBinAddr: 0x100002654, symSize: 0x28 }
  - { offsetInCU: 0x7F38, offset: 0x7F38, size: 0x8, addend: 0x0, symName: __ZNSt3__18ios_base5widthB8ue170006El, symObjAddr: 0x1C40, symBinAddr: 0x10000267C, symSize: 0x2C }
  - { offsetInCU: 0x7F7C, offset: 0x7F7C, size: 0x8, addend: 0x0, symName: __ZNSt3__112basic_stringIcNS_11char_traitsIcEENS_9allocatorIcEEEC2B8ue170006Emc, symObjAddr: 0x1C6C, symBinAddr: 0x1000026A8, symSize: 0x4C }
  - { offsetInCU: 0x7FC2, offset: 0x7FC2, size: 0x8, addend: 0x0, symName: __ZNKSt3__112basic_stringIcNS_11char_traitsIcEENS_9allocatorIcEEE13__get_pointerB8ue170006Ev, symObjAddr: 0x1CCC, symBinAddr: 0x100002708, symSize: 0x54 }
  - { offsetInCU: 0x7FE6, offset: 0x7FE6, size: 0x8, addend: 0x0, symName: __ZNKSt3__112basic_stringIcNS_11char_traitsIcEENS_9allocatorIcEEE18__get_long_pointerB8ue170006Ev, symObjAddr: 0x1D20, symBinAddr: 0x10000275C, symSize: 0x28 }
  - { offsetInCU: 0x800A, offset: 0x800A, size: 0x8, addend: 0x0, symName: __ZNKSt3__112basic_stringIcNS_11char_traitsIcEENS_9allocatorIcEEE19__get_short_pointerB8ue170006Ev, symObjAddr: 0x1D48, symBinAddr: 0x100002784, symSize: 0x28 }
  - { offsetInCU: 0x802F, offset: 0x802F, size: 0x8, addend: 0x0, symName: __ZNSt3__114pointer_traitsIPKcE10pointer_toB8ue170006ERS1_, symObjAddr: 0x1D70, symBinAddr: 0x1000027AC, symSize: 0x14 }
  - { offsetInCU: 0x8050, offset: 0x8050, size: 0x8, addend: 0x0, symName: __ZNSt3__119ostreambuf_iteratorIcNS_11char_traitsIcEEEC2B8ue170006ERNS_13basic_ostreamIcS2_EE, symObjAddr: 0x1D84, symBinAddr: 0x1000027C0, symSize: 0x54 }
  - { offsetInCU: 0x8086, offset: 0x8086, size: 0x8, addend: 0x0, symName: __ZNKSt3__19basic_iosIcNS_11char_traitsIcEEE5rdbufB8ue170006Ev, symObjAddr: 0x1DD8, symBinAddr: 0x100002814, symSize: 0x24 }
  - { offsetInCU: 0x80AC, offset: 0x80AC, size: 0x8, addend: 0x0, symName: __ZNKSt3__18ios_base5rdbufB8ue170006Ev, symObjAddr: 0x1DFC, symBinAddr: 0x100002838, symSize: 0x18 }
  - { offsetInCU: 0x80D1, offset: 0x80D1, size: 0x8, addend: 0x0, symName: __ZNSt3__111char_traitsIcE11eq_int_typeB8ue170006Eii, symObjAddr: 0x1E14, symBinAddr: 0x100002850, symSize: 0x28 }
  - { offsetInCU: 0x8103, offset: 0x8103, size: 0x8, addend: 0x0, symName: __ZNSt3__111char_traitsIcE3eofB8ue170006Ev, symObjAddr: 0x1E3C, symBinAddr: 0x100002878, symSize: 0x8 }
  - { offsetInCU: 0x8116, offset: 0x8116, size: 0x8, addend: 0x0, symName: __ZNKSt3__19basic_iosIcNS_11char_traitsIcEEE5widenB8ue170006Ec, symObjAddr: 0x1E44, symBinAddr: 0x100002880, symSize: 0x84 }
  - { offsetInCU: 0x8182, offset: 0x8182, size: 0x8, addend: 0x0, symName: __ZNKSt3__15ctypeIcE5widenB8ue170006Ec, symObjAddr: 0x1EF4, symBinAddr: 0x100002930, symSize: 0x38 }
  - { offsetInCU: 0x81B5, offset: 0x81B5, size: 0x8, addend: 0x0, symName: __ZNSt3__18ios_base8setstateB8ue170006Ej, symObjAddr: 0x1F2C, symBinAddr: 0x100002968, symSize: 0x34 }
  - { offsetInCU: 0x3E07, offset: 0xC050, size: 0x8, addend: 0x0, symName: __ZNSt3__1lsB8ue170006IcNS_11char_traitsIcEEEERNS_13basic_ostreamIT_T0_EES7_RKNS_8__iom_t5E, symObjAddr: 0x50C, symBinAddr: 0x100002E74, symSize: 0x40 }
  - { offsetInCU: 0x3E53, offset: 0xC09C, size: 0x8, addend: 0x0, symName: __ZNSt3__15fixedB8ue170006ERNS_8ios_baseE, symObjAddr: 0x58C, symBinAddr: 0x100002EF4, symSize: 0x30 }
  - { offsetInCU: 0x3E81, offset: 0xC0CA, size: 0x8, addend: 0x0, symName: __ZNSt3__112setprecisionB8ue170006Ei, symObjAddr: 0x5BC, symBinAddr: 0x100002F24, symSize: 0x2C }
  - { offsetInCU: 0x3EAD, offset: 0xC0F6, size: 0x8, addend: 0x0, symName: __ZNSt3__1lsB8ue170006IcNS_11char_traitsIcEENS_9allocatorIcEEEERNS_13basic_ostreamIT_T0_EES9_RKNS_12basic_stringIS6_S7_T1_EE, symObjAddr: 0x5E8, symBinAddr: 0x100002F50, symSize: 0x4C }
  - { offsetInCU: 0x6047, offset: 0xE290, size: 0x8, addend: 0x0, symName: __ZN7AccountC2Ev, symObjAddr: 0x0, symBinAddr: 0x10000299C, symSize: 0x54 }
  - { offsetInCU: 0x6076, offset: 0xE2BF, size: 0x8, addend: 0x0, symName: __ZN7AccountC2ENSt3__112basic_stringIcNS0_11char_traitsIcEENS0_9allocatorIcEEEEdd, symObjAddr: 0x88, symBinAddr: 0x1000029F0, symSize: 0x60 }
  - { offsetInCU: 0x60CB, offset: 0xE314, size: 0x8, addend: 0x0, symName: __ZNK7Account15getCustomerNameEv, symObjAddr: 0xE8, symBinAddr: 0x100002A50, symSize: 0x3C }
  - { offsetInCU: 0x60F2, offset: 0xE33B, size: 0x8, addend: 0x0, symName: __ZNK7Account17getAccountBalanceEv, symObjAddr: 0x124, symBinAddr: 0x100002A8C, symSize: 0x18 }
  - { offsetInCU: 0x6119, offset: 0xE362, size: 0x8, addend: 0x0, symName: __ZNK7Account15getInterestRateEv, symObjAddr: 0x13C, symBinAddr: 0x100002AA4, symSize: 0x18 }
  - { offsetInCU: 0x6140, offset: 0xE389, size: 0x8, addend: 0x0, symName: __ZN7Account15setCustomerNameENSt3__112basic_stringIcNS0_11char_traitsIcEENS0_9allocatorIcEEEE, symObjAddr: 0x154, symBinAddr: 0x100002ABC, symSize: 0x30 }
  - { offsetInCU: 0x6176, offset: 0xE3BF, size: 0x8, addend: 0x0, symName: __ZN7Account17setAccountBalanceEd, symObjAddr: 0x184, symBinAddr: 0x100002AEC, symSize: 0x20 }
  - { offsetInCU: 0x61AB, offset: 0xE3F4, size: 0x8, addend: 0x0, symName: __ZN7Account15setInterestRateEd, symObjAddr: 0x1A4, symBinAddr: 0x100002B0C, symSize: 0x20 }
  - { offsetInCU: 0x61E0, offset: 0xE429, size: 0x8, addend: 0x0, symName: __ZN7Account16compoundInterestEv, symObjAddr: 0x1C4, symBinAddr: 0x100002B2C, symSize: 0xAC }
  - { offsetInCU: 0x6236, offset: 0xE47F, size: 0x8, addend: 0x0, symName: __ZN15CheckingAccountC2Ev, symObjAddr: 0x270, symBinAddr: 0x100002BD8, symSize: 0x44 }
  - { offsetInCU: 0x6260, offset: 0xE4A9, size: 0x8, addend: 0x0, symName: __ZN15CheckingAccountC1Ev, symObjAddr: 0x2B4, symBinAddr: 0x100002C1C, symSize: 0x2C }
  - { offsetInCU: 0x628A, offset: 0xE4D3, size: 0x8, addend: 0x0, symName: __ZN15CheckingAccountC2ENSt3__112basic_stringIcNS0_11char_traitsIcEENS0_9allocatorIcEEEEdd, symObjAddr: 0x2E0, symBinAddr: 0x100002C48, symSize: 0x9C }
  - { offsetInCU: 0x62DF, offset: 0xE528, size: 0x8, addend: 0x0, symName: __ZN15CheckingAccountC1ENSt3__112basic_stringIcNS0_11char_traitsIcEENS0_9allocatorIcEEEEdd, symObjAddr: 0x37C, symBinAddr: 0x100002CE4, symSize: 0x44 }
  - { offsetInCU: 0x6334, offset: 0xE57D, size: 0x8, addend: 0x0, symName: __ZNK15CheckingAccount16printAccountInfoEv, symObjAddr: 0x3C0, symBinAddr: 0x100002D28, symSize: 0x14C }
  - { offsetInCU: 0x635B, offset: 0xE5A4, size: 0x8, addend: 0x0, symName: __ZNSt3__113basic_ostreamIcNS_11char_traitsIcEEElsB8ue170006EPFRNS_8ios_baseES5_E, symObjAddr: 0x54C, symBinAddr: 0x100002EB4, symSize: 0x40 }
  - { offsetInCU: 0x638D, offset: 0xE5D6, size: 0x8, addend: 0x0, symName: __ZN15CheckingAccount12checkAccountEd, symObjAddr: 0x700, symBinAddr: 0x100002F9C, symSize: 0x38 }
  - { offsetInCU: 0x63C2, offset: 0xE60B, size: 0x8, addend: 0x0, symName: __ZN15CheckingAccount15withdrawAccountEd, symObjAddr: 0x738, symBinAddr: 0x100002FD4, symSize: 0x5C }
  - { offsetInCU: 0x63FC, offset: 0xE645, size: 0x8, addend: 0x0, symName: __ZN14SavingsAccountC2Ev, symObjAddr: 0x794, symBinAddr: 0x100003030, symSize: 0x48 }
  - { offsetInCU: 0x6426, offset: 0xE66F, size: 0x8, addend: 0x0, symName: __ZN14SavingsAccountC1Ev, symObjAddr: 0x7DC, symBinAddr: 0x100003078, symSize: 0x2C }
  - { offsetInCU: 0x6450, offset: 0xE699, size: 0x8, addend: 0x0, symName: __ZN14SavingsAccountC2ENSt3__112basic_stringIcNS0_11char_traitsIcEENS0_9allocatorIcEEEEdd, symObjAddr: 0x808, symBinAddr: 0x1000030A4, symSize: 0xA0 }
  - { offsetInCU: 0x64A5, offset: 0xE6EE, size: 0x8, addend: 0x0, symName: __ZN14SavingsAccountC1ENSt3__112basic_stringIcNS0_11char_traitsIcEENS0_9allocatorIcEEEEdd, symObjAddr: 0x8A8, symBinAddr: 0x100003144, symSize: 0x44 }
  - { offsetInCU: 0x64FA, offset: 0xE743, size: 0x8, addend: 0x0, symName: __ZN14SavingsAccount19getWithdrawalEventsEv, symObjAddr: 0x8EC, symBinAddr: 0x100003188, symSize: 0x18 }
  - { offsetInCU: 0x6521, offset: 0xE76A, size: 0x8, addend: 0x0, symName: __ZN14SavingsAccount21resetWithdrawalEventsEv, symObjAddr: 0x904, symBinAddr: 0x1000031A0, symSize: 0x18 }
  - { offsetInCU: 0x6548, offset: 0xE791, size: 0x8, addend: 0x0, symName: __ZNK14SavingsAccount16printAccountInfoEv, symObjAddr: 0x91C, symBinAddr: 0x1000031B8, symSize: 0x14C }
  - { offsetInCU: 0x656F, offset: 0xE7B8, size: 0x8, addend: 0x0, symName: __ZN14SavingsAccount12checkAccountEd, symObjAddr: 0xA68, symBinAddr: 0x100003304, symSize: 0x68 }
  - { offsetInCU: 0x65A4, offset: 0xE7ED, size: 0x8, addend: 0x0, symName: __ZN14SavingsAccount15withdrawAccountEd, symObjAddr: 0xAD0, symBinAddr: 0x10000336C, symSize: 0x6C }
  - { offsetInCU: 0x65D9, offset: 0xE822, size: 0x8, addend: 0x0, symName: __ZNSt3__18ios_base4setfB8ue170006Ejj, symObjAddr: 0xB3C, symBinAddr: 0x1000033D8, symSize: 0x5C }
  - { offsetInCU: 0x662C, offset: 0xE875, size: 0x8, addend: 0x0, symName: __ZNSt3__18ios_base6unsetfB8ue170006Ej, symObjAddr: 0xB98, symBinAddr: 0x100003434, symSize: 0x28 }
  - { offsetInCU: 0x6661, offset: 0xE8AA, size: 0x8, addend: 0x0, symName: __ZNSt3__18__iom_t5C1B8ue170006Ei, symObjAddr: 0xBC0, symBinAddr: 0x10000345C, symSize: 0x34 }
  - { offsetInCU: 0x6697, offset: 0xE8E0, size: 0x8, addend: 0x0, symName: __ZNSt3__18__iom_t5C2B8ue170006Ei, symObjAddr: 0xBF4, symBinAddr: 0x100003490, symSize: 0x20 }
  - { offsetInCU: 0x66CD, offset: 0xE916, size: 0x8, addend: 0x0, symName: __ZNSt3__18ios_base9precisionB8ue170006El, symObjAddr: 0xDC8, symBinAddr: 0x1000034B0, symSize: 0x2C }
...
